target datalayout = "e-m:e-p270:32:32-p271:32:32-p272:64:64-i64:64-i128:128-f80:128-n8:16:32:64-S128"
target triple = "x86_64-pc-linux-gnu"

%struct.TSQueryParserStateData = type { ptr, ptr, ptr, i32, i32, ptr, ptr, ptr, i32, i32, ptr, ptr }
%struct.Node = type { i32 }
%struct.ErrorSaveContext = type { i32, i8, i8, ptr }
%struct.OperatorElement = type { i8, i16 }

@.str.1 = private unnamed_addr constant [10 x i8] c"tsquery.c\00", align 1
@.str.18 = private unnamed_addr constant [30 x i8] c"syntax error in tsquery: \22%s\22\00", align 1
@__func__.makepol = private unnamed_addr constant [8 x i8] c"makepol\00", align 1
@.str.19 = private unnamed_addr constant [24 x i8] c"tsquery stack too small\00", align 1
@__func__.pushOpStack = private unnamed_addr constant [12 x i8] c"pushOpStack\00", align 1

; Function Attrs: nounwind uwtable
define internal void @pushOpStack(ptr noundef %0, ptr noundef %1, i8 noundef signext %2, i16 noundef signext %3) #0 {
  %5 = alloca ptr, align 8
  %6 = alloca ptr, align 8
  %7 = alloca i8, align 1
  %8 = alloca i16, align 2
  store ptr %0, ptr %5, align 8
  store ptr %1, ptr %6, align 8
  store i8 %2, ptr %7, align 1
  store i16 %3, ptr %8, align 2
  %9 = load ptr, ptr %6, align 8
  %10 = load i32, ptr %9, align 4
  %11 = icmp eq i32 %10, 32
  br i1 %11, label %12, label %22

12:                                               ; preds = %4
  br label %13

13:                                               ; preds = %12
  br i1 true, label %14, label %16

14:                                               ; preds = %13
  %15 = call zeroext i1 @errstart_cold(i32 noundef 21, ptr noundef null) #12
  br i1 %15, label %18, label %20

16:                                               ; preds = %13
  %17 = call zeroext i1 @errstart(i32 noundef 21, ptr noundef null)
  br i1 %17, label %18, label %20

18:                                               ; preds = %16, %14
  %19 = call i32 (ptr, ...) @errmsg_internal(ptr noundef @.str.19)
  call void @errfinish(ptr noundef @.str.1, i32 noundef 639, ptr noundef @__func__.pushOpStack)
  br label %20

20:                                               ; preds = %18, %16, %14
  unreachable

21:                                               ; No predecessors!
  br label %22

22:                                               ; preds = %21, %4
  %23 = load i8, ptr %7, align 1
  %24 = load ptr, ptr %5, align 8
  %25 = load ptr, ptr %6, align 8
  %26 = load i32, ptr %25, align 4
  %27 = sext i32 %26 to i64
  %28 = getelementptr inbounds %struct.OperatorElement, ptr %24, i64 %27
  %29 = getelementptr inbounds nuw %struct.OperatorElement, ptr %28, i32 0, i32 0
  store i8 %23, ptr %29, align 2
  %30 = load i16, ptr %8, align 2
  %31 = load ptr, ptr %5, align 8
  %32 = load ptr, ptr %6, align 8
  %33 = load i32, ptr %32, align 4
  %34 = sext i32 %33 to i64
  %35 = getelementptr inbounds %struct.OperatorElement, ptr %31, i64 %34
  %36 = getelementptr inbounds nuw %struct.OperatorElement, ptr %35, i32 0, i32 1
  store i16 %30, ptr %36, align 2
  %37 = load ptr, ptr %6, align 8
  %38 = load i32, ptr %37, align 4
  %39 = add i32 %38, 1
  store i32 %39, ptr %37, align 4
  ret void
}

; Function Attrs: nounwind uwtable
define internal void @makepol(ptr noundef %0, ptr noundef %1, i64 noundef %2) #0 {
  %4 = alloca ptr, align 8
  %5 = alloca ptr, align 8
  %6 = alloca i64, align 8
  %7 = alloca i8, align 1
  %8 = alloca i32, align 4
  %9 = alloca i32, align 4
  %10 = alloca ptr, align 8
  %11 = alloca [32 x %struct.OperatorElement], align 16
  %12 = alloca i32, align 4
  %13 = alloca i16, align 2
  %14 = alloca i8, align 1
  %15 = alloca i32, align 4
  %16 = alloca ptr, align 8
  store ptr %0, ptr %4, align 8
  store ptr %1, ptr %5, align 8
  store i64 %2, ptr %6, align 8
  call void @llvm.lifetime.start.p0(i64 1, ptr %7) #11
  store i8 0, ptr %7, align 1
  call void @llvm.lifetime.start.p0(i64 4, ptr %8) #11
  call void @llvm.lifetime.start.p0(i64 4, ptr %9) #11
  store i32 0, ptr %9, align 4
  call void @llvm.lifetime.start.p0(i64 8, ptr %10) #11
  store ptr null, ptr %10, align 8
  call void @llvm.lifetime.start.p0(i64 128, ptr %11) #11
  call void @llvm.lifetime.start.p0(i64 4, ptr %12) #11
  store i32 0, ptr %12, align 4
  call void @llvm.lifetime.start.p0(i64 2, ptr %13) #11
  store i16 0, ptr %13, align 2
  call void @llvm.lifetime.start.p0(i64 1, ptr %14) #11
  call void @check_stack_depth()
  br label %17

17:                                               ; preds = %107, %3
  %18 = load ptr, ptr %4, align 8
  %19 = getelementptr inbounds nuw %struct.TSQueryParserStateData, ptr %18, i32 0, i32 0
  %20 = load ptr, ptr %19, align 8
  %21 = load ptr, ptr %4, align 8
  %22 = call i32 %20(ptr noundef %21, ptr noundef %7, ptr noundef %9, ptr noundef %10, ptr noundef %13, ptr noundef %14)
  store i32 %22, ptr %8, align 4
  %23 = icmp ne i32 %22, 0
  br i1 %23, label %24, label %108

24:                                               ; preds = %17
  %25 = load i32, ptr %8, align 4
  switch i32 %25, label %50 [
    i32 2, label %26
    i32 3, label %35
    i32 4, label %42
    i32 5, label %46
    i32 1, label %49
  ]

26:                                               ; preds = %24
  %27 = load ptr, ptr %5, align 8
  %28 = load i64, ptr %6, align 8
  %29 = load ptr, ptr %4, align 8
  %30 = load ptr, ptr %10, align 8
  %31 = load i32, ptr %9, align 4
  %32 = load i16, ptr %13, align 2
  %33 = load i8, ptr %14, align 1, !range !6, !noundef !7
  %34 = trunc i8 %33 to i1
  call void %27(i64 noundef %28, ptr noundef %29, ptr noundef %30, i32 noundef %31, i16 noundef signext %32, i1 noundef zeroext %34)
  br label %87

35:                                               ; preds = %24
  %36 = load ptr, ptr %4, align 8
  %37 = getelementptr inbounds [32 x %struct.OperatorElement], ptr %11, i64 0, i64 0
  %38 = load i8, ptr %7, align 1
  call void @cleanOpStack(ptr noundef %36, ptr noundef %37, ptr noundef %12, i8 noundef signext %38)
  %39 = getelementptr inbounds [32 x %struct.OperatorElement], ptr %11, i64 0, i64 0
  %40 = load i8, ptr %7, align 1
  %41 = load i16, ptr %13, align 2
  call void @pushOpStack(ptr noundef %39, ptr noundef %12, i8 noundef signext %40, i16 noundef signext %41)
  br label %87

42:                                               ; preds = %24
  %43 = load ptr, ptr %4, align 8
  %44 = load ptr, ptr %5, align 8
  %45 = load i64, ptr %6, align 8
  call void @makepol(ptr noundef %43, ptr noundef %44, i64 noundef %45)
  br label %87

46:                                               ; preds = %24
  %47 = load ptr, ptr %4, align 8
  %48 = getelementptr inbounds [32 x %struct.OperatorElement], ptr %11, i64 0, i64 0
  call void @cleanOpStack(ptr noundef %47, ptr noundef %48, ptr noundef %12, i8 noundef signext 3)
  store i32 1, ptr %15, align 4
  br label %111

49:                                               ; preds = %24
  br label %50

50:                                               ; preds = %24, %49
  %51 = load ptr, ptr %4, align 8
  %52 = getelementptr inbounds nuw %struct.TSQueryParserStateData, ptr %51, i32 0, i32 11
  %53 = load ptr, ptr %52, align 8
  %54 = icmp ne ptr %53, null
  br i1 %54, label %55, label %69

55:                                               ; preds = %50
  %56 = load ptr, ptr %4, align 8
  %57 = getelementptr inbounds nuw %struct.TSQueryParserStateData, ptr %56, i32 0, i32 11
  %58 = load ptr, ptr %57, align 8
  %59 = getelementptr inbounds nuw %struct.Node, ptr %58, i32 0, i32 0
  %60 = load i32, ptr %59, align 4
  %61 = icmp eq i32 %60, 446
  br i1 %61, label %62, label %69

62:                                               ; preds = %55
  %63 = load ptr, ptr %4, align 8
  %64 = getelementptr inbounds nuw %struct.TSQueryParserStateData, ptr %63, i32 0, i32 11
  %65 = load ptr, ptr %64, align 8
  %66 = getelementptr inbounds nuw %struct.ErrorSaveContext, ptr %65, i32 0, i32 1
  %67 = load i8, ptr %66, align 4, !range !6, !noundef !7
  %68 = trunc i8 %67 to i1
  br i1 %68, label %86, label %69

69:                                               ; preds = %62, %55, %50
  br label %70

70:                                               ; preds = %69
  call void @llvm.lifetime.start.p0(i64 8, ptr %16) #11
  %71 = load ptr, ptr %4, align 8
  %72 = getelementptr inbounds nuw %struct.TSQueryParserStateData, ptr %71, i32 0, i32 11
  %73 = load ptr, ptr %72, align 8
  store ptr %73, ptr %16, align 8
  %74 = load ptr, ptr %16, align 8
  %75 = call zeroext i1 @errsave_start(ptr noundef %74, ptr noundef null)
  br i1 %75, label %76, label %83

76:                                               ; preds = %70
  %77 = call i32 @errcode(i32 noundef 16801924)
  %78 = load ptr, ptr %4, align 8
  %79 = getelementptr inbounds nuw %struct.TSQueryParserStateData, ptr %78, i32 0, i32 1
  %80 = load ptr, ptr %79, align 8
  %81 = call i32 (ptr, ...) @errmsg(ptr noundef @.str.18, ptr noundef %80)
  %82 = load ptr, ptr %16, align 8
  call void @errsave_finish(ptr noundef %82, ptr noundef @.str.1, i32 noundef 714, ptr noundef @__func__.makepol)
  br label %83

83:                                               ; preds = %76, %70
  call void @llvm.lifetime.end.p0(i64 8, ptr %16) #11
  br label %84

84:                                               ; preds = %83
  br label %85

85:                                               ; preds = %84
  br label %86

86:                                               ; preds = %85, %62
  store i32 1, ptr %15, align 4
  br label %111

87:                                               ; preds = %42, %35, %26
  %88 = load ptr, ptr %4, align 8
  %89 = getelementptr inbounds nuw %struct.TSQueryParserStateData, ptr %88, i32 0, i32 11
  %90 = load ptr, ptr %89, align 8
  %91 = icmp ne ptr %90, null
  br i1 %91, label %92, label %107

92:                                               ; preds = %87
  %93 = load ptr, ptr %4, align 8
  %94 = getelementptr inbounds nuw %struct.TSQueryParserStateData, ptr %93, i32 0, i32 11
  %95 = load ptr, ptr %94, align 8
  %96 = getelementptr inbounds nuw %struct.Node, ptr %95, i32 0, i32 0
  %97 = load i32, ptr %96, align 4
  %98 = icmp eq i32 %97, 446
  br i1 %98, label %99, label %107

99:                                               ; preds = %92
  %100 = load ptr, ptr %4, align 8
  %101 = getelementptr inbounds nuw %struct.TSQueryParserStateData, ptr %100, i32 0, i32 11
  %102 = load ptr, ptr %101, align 8
  %103 = getelementptr inbounds nuw %struct.ErrorSaveContext, ptr %102, i32 0, i32 1
  %104 = load i8, ptr %103, align 4, !range !6, !noundef !7
  %105 = trunc i8 %104 to i1
  br i1 %105, label %106, label %107

106:                                              ; preds = %99
  store i32 1, ptr %15, align 4
  br label %111

107:                                              ; preds = %99, %92, %87
  br label %17, !llvm.loop !11

108:                                              ; preds = %17
  %109 = load ptr, ptr %4, align 8
  %110 = getelementptr inbounds [32 x %struct.OperatorElement], ptr %11, i64 0, i64 0
  call void @cleanOpStack(ptr noundef %109, ptr noundef %110, ptr noundef %12, i8 noundef signext 3)
  store i32 0, ptr %15, align 4
  br label %111

111:                                              ; preds = %108, %106, %86, %46
  call void @llvm.lifetime.end.p0(i64 1, ptr %14) #11
  call void @llvm.lifetime.end.p0(i64 2, ptr %13) #11
  call void @llvm.lifetime.end.p0(i64 4, ptr %12) #11
  call void @llvm.lifetime.end.p0(i64 128, ptr %11) #11
  call void @llvm.lifetime.end.p0(i64 8, ptr %10) #11
  call void @llvm.lifetime.end.p0(i64 4, ptr %9) #11
  call void @llvm.lifetime.end.p0(i64 4, ptr %8) #11
  call void @llvm.lifetime.end.p0(i64 1, ptr %7) #11
  %112 = load i32, ptr %15, align 4
  switch i32 %112, label %114 [
    i32 0, label %113
    i32 1, label %113
  ]

113:                                              ; preds = %111, %111
  ret void

114:                                              ; preds = %111
  unreachable
}