; Function Attrs: nounwind uwtable
define internal fastcc void @makepol(ptr noundef nonnull %0, ptr noundef readonly captures(none) %1, i64 noundef %2) unnamed_addr #0 {
  %4 = alloca i8, align 1
  %5 = alloca i32, align 4
  %6 = alloca ptr, align 8
  %7 = alloca [32 x %struct.OperatorElement], align 16
  %8 = alloca i32, align 4
  %9 = alloca i16, align 2
  %10 = alloca i8, align 1
  call void @llvm.lifetime.start.p0(i64 1, ptr nonnull %4) #12
  store i8 0, ptr %4, align 1
  call void @llvm.lifetime.start.p0(i64 4, ptr nonnull %5) #12
  store i32 0, ptr %5, align 4
  call void @llvm.lifetime.start.p0(i64 8, ptr nonnull %6) #12
  store ptr null, ptr %6, align 8
  call void @llvm.lifetime.start.p0(i64 128, ptr nonnull %7) #12
  call void @llvm.lifetime.start.p0(i64 4, ptr nonnull %8) #12
  store i32 0, ptr %8, align 4
  call void @llvm.lifetime.start.p0(i64 2, ptr nonnull %9) #12
  store i16 0, ptr %9, align 2
  call void @llvm.lifetime.start.p0(i64 1, ptr nonnull %10) #12
  tail call void @check_stack_depth() #12
  %11 = getelementptr inbounds nuw i8, ptr %0, i64 72
  br label %12

12:                                               ; preds = %.backedge, %3
  %13 = phi i32 [ 0, %3 ], [ %69, %.backedge ]
  %14 = load ptr, ptr %0, align 8
  %15 = call i32 %14(ptr noundef nonnull %0, ptr noundef nonnull %4, ptr noundef nonnull %5, ptr noundef nonnull %6, ptr noundef nonnull %9, ptr noundef nonnull %10) #12
  switch i32 %15, label %52 [
    i32 0, label %78
    i32 2, label %16
    i32 3, label %22
    i32 4, label %35
    i32 5, label %36
  ]

16:                                               ; preds = %12
  %17 = load ptr, ptr %6, align 8
  %18 = load i32, ptr %5, align 4
  %19 = load i16, ptr %9, align 2
  %20 = load i8, ptr %10, align 1, !range !7, !noundef !8
  %21 = trunc nuw i8 %20 to i1
  call void %1(i64 noundef %2, ptr noundef nonnull %0, ptr noundef %17, i32 noundef %18, i16 noundef signext %19, i1 noundef zeroext %21) #12
  br label %68

22:                                               ; preds = %12
  %23 = load i8, ptr %4, align 1
  call fastcc void @cleanOpStack(ptr noundef %0, ptr noundef %7, ptr noundef %8, i8 noundef signext %23)
  %24 = load i32, ptr %8, align 4
  %25 = icmp eq i32 %24, 32
  br i1 %25, label %26, label %pushOpStack.exit

26:                                               ; preds = %22
  %27 = call zeroext i1 @errstart_cold(i32 noundef 21, ptr noundef null) #13
  call void @llvm.assume(i1 %27)
  %28 = call i32 (ptr, ...) @errmsg_internal(ptr noundef nonnull @.str.19) #12
  call void @errfinish(ptr noundef nonnull @.str.1, i32 noundef 639, ptr noundef nonnull @__func__.pushOpStack) #12
  unreachable

pushOpStack.exit:                                 ; preds = %22
  %29 = load i16, ptr %9, align 2
  %30 = load i8, ptr %4, align 1
  %31 = sext i32 %24 to i64
  %32 = getelementptr inbounds %struct.OperatorElement, ptr %7, i64 %31
  store i8 %30, ptr %32, align 4
  %33 = getelementptr inbounds %struct.OperatorElement, ptr %7, i64 %31, i32 1
  store i16 %29, ptr %33, align 2
  %34 = add i32 %24, 1
  store i32 %34, ptr %8, align 4
  br label %68

35:                                               ; preds = %12
  call fastcc void @makepol(ptr noundef %0, ptr noundef %1, i64 noundef %2)
  br label %68

36:                                               ; preds = %12
  %.not17.i = icmp eq i32 %13, 0
  br i1 %.not17.i, label %cleanOpStack.exit, label %.lr.ph.i

.lr.ph.i:                                         ; preds = %36
  %37 = getelementptr inbounds nuw i8, ptr %0, i64 32
  br label %.lr.ph.split.i

.lr.ph.split.i:                                   ; preds = %.lr.ph.split.i, %.lr.ph.i
  %38 = phi i32 [ %39, %.lr.ph.split.i ], [ %13, %.lr.ph.i ]
  %39 = add i32 %38, -1
  %40 = sext i32 %39 to i64
  %41 = getelementptr inbounds %struct.OperatorElement, ptr %7, i64 %40
  %42 = load i8, ptr %41, align 4
  %43 = getelementptr inbounds nuw i8, ptr %41, i64 2
  %44 = load i16, ptr %43, align 2
  %45 = call ptr @palloc0(i64 noundef 8) #12
  store i8 2, ptr %45, align 4
  %46 = getelementptr inbounds nuw i8, ptr %45, i64 1
  store i8 %42, ptr %46, align 1
  %47 = icmp eq i8 %42, 4
  %48 = select i1 %47, i16 %44, i16 0
  %49 = getelementptr inbounds nuw i8, ptr %45, i64 2
  store i16 %48, ptr %49, align 2
  %50 = load ptr, ptr %37, align 8
  %51 = call ptr @lcons(ptr noundef nonnull %45, ptr noundef %50) #12
  store ptr %51, ptr %37, align 8
  %.not.i = icmp eq i32 %39, 0
  br i1 %.not.i, label %cleanOpStack.exit, label %.lr.ph.split.i, !llvm.loop !12

52:                                               ; preds = %12
  %53 = load ptr, ptr %11, align 8
  %.not24 = icmp eq ptr %53, null
  br i1 %.not24, label %61, label %54

54:                                               ; preds = %52
  %55 = load i32, ptr %53, align 4
  %56 = icmp eq i32 %55, 446
  br i1 %56, label %57, label %61

57:                                               ; preds = %54
  %58 = getelementptr inbounds nuw i8, ptr %53, i64 4
  %59 = load i8, ptr %58, align 4, !range !7, !noundef !8
  %60 = trunc nuw i8 %59 to i1
  br i1 %60, label %cleanOpStack.exit, label %61

61:                                               ; preds = %52, %54, %57
  %62 = call zeroext i1 @errsave_start(ptr noundef %53, ptr noundef null) #12
  br i1 %62, label %63, label %cleanOpStack.exit

63:                                               ; preds = %61
  %64 = call i32 @errcode(i32 noundef 16801924) #12
  %65 = getelementptr inbounds nuw i8, ptr %0, i64 8
  %66 = load ptr, ptr %65, align 8
  %67 = call i32 (ptr, ...) @errmsg(ptr noundef nonnull @.str.18, ptr noundef %66) #12
  call void @errsave_finish(ptr noundef %53, ptr noundef nonnull @.str.1, i32 noundef 714, ptr noundef nonnull @__func__.makepol) #12
  br label %cleanOpStack.exit

68:                                               ; preds = %35, %pushOpStack.exit, %16
  %69 = phi i32 [ %13, %35 ], [ %34, %pushOpStack.exit ], [ %13, %16 ]
  %70 = load ptr, ptr %11, align 8
  %.not23 = icmp eq ptr %70, null
  br i1 %.not23, label %.backedge, label %71

71:                                               ; preds = %68
  %72 = load i32, ptr %70, align 4
  %73 = icmp eq i32 %72, 446
  br i1 %73, label %74, label %.backedge

74:                                               ; preds = %71
  %75 = getelementptr inbounds nuw i8, ptr %70, i64 4
  %76 = load i8, ptr %75, align 4, !range !7, !noundef !8
  %77 = trunc nuw i8 %76 to i1
  br i1 %77, label %cleanOpStack.exit, label %.backedge

.backedge:                                        ; preds = %74, %71, %68
  br label %12, !llvm.loop !13

78:                                               ; preds = %12
  %.not17.i25 = icmp eq i32 %13, 0
  br i1 %.not17.i25, label %cleanOpStack.exit, label %.lr.ph.i26

.lr.ph.i26:                                       ; preds = %78
  %79 = getelementptr inbounds nuw i8, ptr %0, i64 32
  br label %.lr.ph.split.i27

.lr.ph.split.i27:                                 ; preds = %.lr.ph.split.i27, %.lr.ph.i26
  %80 = phi i32 [ %81, %.lr.ph.split.i27 ], [ %13, %.lr.ph.i26 ]
  %81 = add i32 %80, -1
  %82 = sext i32 %81 to i64
  %83 = getelementptr inbounds %struct.OperatorElement, ptr %7, i64 %82
  %84 = load i8, ptr %83, align 4
  %85 = getelementptr inbounds nuw i8, ptr %83, i64 2
  %86 = load i16, ptr %85, align 2
  %87 = call ptr @palloc0(i64 noundef 8) #12
  store i8 2, ptr %87, align 4
  %88 = getelementptr inbounds nuw i8, ptr %87, i64 1
  store i8 %84, ptr %88, align 1
  %89 = icmp eq i8 %84, 4
  %90 = select i1 %89, i16 %86, i16 0
  %91 = getelementptr inbounds nuw i8, ptr %87, i64 2
  store i16 %90, ptr %91, align 2
  %92 = load ptr, ptr %79, align 8
  %93 = call ptr @lcons(ptr noundef nonnull %87, ptr noundef %92) #12
  store ptr %93, ptr %79, align 8
  %.not.i28 = icmp eq i32 %81, 0
  br i1 %.not.i28, label %cleanOpStack.exit, label %.lr.ph.split.i27, !llvm.loop !12

cleanOpStack.exit:                                ; preds = %74, %.lr.ph.split.i, %.lr.ph.split.i27, %78, %36, %57, %63, %61
  call void @llvm.lifetime.end.p0(i64 1, ptr nonnull %10) #12
  call void @llvm.lifetime.end.p0(i64 2, ptr nonnull %9) #12
  call void @llvm.lifetime.end.p0(i64 4, ptr nonnull %8) #12
  call void @llvm.lifetime.end.p0(i64 128, ptr nonnull %7) #12
  call void @llvm.lifetime.end.p0(i64 8, ptr nonnull %6) #12
  call void @llvm.lifetime.end.p0(i64 4, ptr nonnull %5) #12
  call void @llvm.lifetime.end.p0(i64 1, ptr nonnull %4) #12
  ret void
}